target datalayout = "e-m:e-p270:32:32-p271:32:32-p272:64:64-i64:64-i128:128-f80:128-n8:16:32:64-S128"
target triple = "x86_64-pc-linux-gnu"

%struct.rsa_st = type { ptr, ptr, ptr, ptr, ptr, ptr, ptr, ptr, ptr, ptr, %struct.crypto_ex_data_st, i32, i32, %union.crypto_mutex_st, ptr, ptr, ptr, i32, ptr, ptr }
%struct.crypto_ex_data_st = type { ptr }
%union.crypto_mutex_st = type { double, [48 x i8] }
%struct.bignum_st = type { ptr, i32, i32, i32, i32 }

@.str = private unnamed_addr constant [125 x i8] c"generated/home/dtcxzyw/WorkSpace/Projects/compilers/llvm-opt-benchmark/bench/libquic/libquic/boringssl/crypto/rsa/rsa_impl.c\00", align 1

; Function Attrs: nounwind uwtable
define internal void @rsa_blinding_release(ptr noundef %0, ptr noundef %1, i32 noundef %2) #0 {
  %4 = alloca ptr, align 8
  %5 = alloca ptr, align 8
  %6 = alloca i32, align 4
  store ptr %0, ptr %4, align 8, !tbaa !6
  store ptr %1, ptr %5, align 8, !tbaa !33
  store i32 %2, ptr %6, align 4, !tbaa !27
  %7 = load i32, ptr %6, align 4, !tbaa !27
  %8 = icmp eq i32 %7, 1024
  br i1 %8, label %9, label %11

9:                                                ; preds = %3
  %10 = load ptr, ptr %5, align 8, !tbaa !33
  call void @BN_BLINDING_free(ptr noundef %10)
  br label %22

11:                                               ; preds = %3
  %12 = load ptr, ptr %4, align 8, !tbaa !6
  %13 = getelementptr inbounds nuw %struct.rsa_st, ptr %12, i32 0, i32 13
  call void @CRYPTO_MUTEX_lock_write(ptr noundef %13)
  %14 = load ptr, ptr %4, align 8, !tbaa !6
  %15 = getelementptr inbounds nuw %struct.rsa_st, ptr %14, i32 0, i32 19
  %16 = load ptr, ptr %15, align 8, !tbaa !46
  %17 = load i32, ptr %6, align 4, !tbaa !27
  %18 = zext i32 %17 to i64
  %19 = getelementptr inbounds nuw i8, ptr %16, i64 %18
  store i8 0, ptr %19, align 1, !tbaa !44
  %20 = load ptr, ptr %4, align 8, !tbaa !6
  %21 = getelementptr inbounds nuw %struct.rsa_st, ptr %20, i32 0, i32 13
  call void @CRYPTO_MUTEX_unlock(ptr noundef %21)
  br label %22

22:                                               ; preds = %11, %9
  ret void
}

; Function Attrs: nounwind uwtable
define hidden i32 @rsa_default_private_transform(ptr noundef %0, ptr noundef %1, ptr noundef %2, i64 noundef %3) #0 {
  %5 = alloca i32, align 4
  %6 = alloca ptr, align 8
  %7 = alloca ptr, align 8
  %8 = alloca ptr, align 8
  %9 = alloca i64, align 8
  %10 = alloca ptr, align 8
  %11 = alloca ptr, align 8
  %12 = alloca ptr, align 8
  %13 = alloca i32, align 4
  %14 = alloca ptr, align 8
  %15 = alloca i32, align 4
  %16 = alloca %struct.bignum_st, align 8
  %17 = alloca ptr, align 8
  %18 = alloca i32, align 4
  store ptr %0, ptr %6, align 8, !tbaa !6
  store ptr %1, ptr %7, align 8, !tbaa !24
  store ptr %2, ptr %8, align 8, !tbaa !24
  store i64 %3, ptr %9, align 8, !tbaa !25
  call void @llvm.lifetime.start.p0(i64 8, ptr %10) #7
  call void @llvm.lifetime.start.p0(i64 8, ptr %11) #7
  call void @llvm.lifetime.start.p0(i64 8, ptr %12) #7
  store ptr null, ptr %12, align 8, !tbaa !28
  call void @llvm.lifetime.start.p0(i64 4, ptr %13) #7
  store i32 0, ptr %13, align 4, !tbaa !27
  call void @llvm.lifetime.start.p0(i64 8, ptr %14) #7
  store ptr null, ptr %14, align 8, !tbaa !33
  call void @llvm.lifetime.start.p0(i64 4, ptr %15) #7
  store i32 0, ptr %15, align 4, !tbaa !27
  %19 = call ptr @BN_CTX_new()
  store ptr %19, ptr %12, align 8, !tbaa !28
  %20 = load ptr, ptr %12, align 8, !tbaa !28
  %21 = icmp eq ptr %20, null
  br i1 %21, label %22, label %23

22:                                               ; preds = %4
  br label %189

23:                                               ; preds = %4
  %24 = load ptr, ptr %12, align 8, !tbaa !28
  call void @BN_CTX_start(ptr noundef %24)
  %25 = load ptr, ptr %12, align 8, !tbaa !28
  %26 = call ptr @BN_CTX_get(ptr noundef %25)
  store ptr %26, ptr %10, align 8, !tbaa !30
  %27 = load ptr, ptr %12, align 8, !tbaa !28
  %28 = call ptr @BN_CTX_get(ptr noundef %27)
  store ptr %28, ptr %11, align 8, !tbaa !30
  %29 = load ptr, ptr %10, align 8, !tbaa !30
  %30 = icmp eq ptr %29, null
  br i1 %30, label %34, label %31

31:                                               ; preds = %23
  %32 = load ptr, ptr %11, align 8, !tbaa !30
  %33 = icmp eq ptr %32, null
  br i1 %33, label %34, label %35

34:                                               ; preds = %31, %23
  call void @ERR_put_error(i32 noundef 4, i32 noundef 0, i32 noundef 65, ptr noundef @.str, i32 noundef 545)
  br label %189

35:                                               ; preds = %31
  %36 = load ptr, ptr %8, align 8, !tbaa !24
  %37 = load i64, ptr %9, align 8, !tbaa !25
  %38 = load ptr, ptr %10, align 8, !tbaa !30
  %39 = call ptr @BN_bin2bn(ptr noundef %36, i64 noundef %37, ptr noundef %38)
  %40 = icmp eq ptr %39, null
  br i1 %40, label %41, label %42

41:                                               ; preds = %35
  br label %189

42:                                               ; preds = %35
  %43 = load ptr, ptr %10, align 8, !tbaa !30
  %44 = load ptr, ptr %6, align 8, !tbaa !6
  %45 = getelementptr inbounds nuw %struct.rsa_st, ptr %44, i32 0, i32 1
  %46 = load ptr, ptr %45, align 8, !tbaa !11
  %47 = call i32 @BN_ucmp(ptr noundef %43, ptr noundef %46)
  %48 = icmp sge i32 %47, 0
  br i1 %48, label %49, label %50

49:                                               ; preds = %42
  call void @ERR_put_error(i32 noundef 4, i32 noundef 0, i32 noundef 115, ptr noundef @.str, i32 noundef 555)
  br label %189

50:                                               ; preds = %42
  %51 = load ptr, ptr %6, align 8, !tbaa !6
  %52 = getelementptr inbounds nuw %struct.rsa_st, ptr %51, i32 0, i32 12
  %53 = load i32, ptr %52, align 4, !tbaa !35
  %54 = and i32 %53, 8
  %55 = icmp ne i32 %54, 0
  br i1 %55, label %95, label %56

56:                                               ; preds = %50
  %57 = load ptr, ptr %6, align 8, !tbaa !6
  %58 = getelementptr inbounds nuw %struct.rsa_st, ptr %57, i32 0, i32 2
  %59 = load ptr, ptr %58, align 8, !tbaa !31
  %60 = icmp eq ptr %59, null
  br i1 %60, label %61, label %62

61:                                               ; preds = %56
  call void @ERR_put_error(i32 noundef 4, i32 noundef 0, i32 noundef 130, ptr noundef @.str, i32 noundef 563)
  br label %189

62:                                               ; preds = %56
  %63 = load ptr, ptr %6, align 8, !tbaa !6
  %64 = getelementptr inbounds nuw %struct.rsa_st, ptr %63, i32 0, i32 14
  %65 = load ptr, ptr %6, align 8, !tbaa !6
  %66 = getelementptr inbounds nuw %struct.rsa_st, ptr %65, i32 0, i32 13
  %67 = load ptr, ptr %6, align 8, !tbaa !6
  %68 = getelementptr inbounds nuw %struct.rsa_st, ptr %67, i32 0, i32 1
  %69 = load ptr, ptr %68, align 8, !tbaa !11
  %70 = load ptr, ptr %12, align 8, !tbaa !28
  %71 = call i32 @BN_MONT_CTX_set_locked(ptr noundef %64, ptr noundef %66, ptr noundef %69, ptr noundef %70)
  %72 = icmp ne i32 %71, 0
  br i1 %72, label %74, label %73

73:                                               ; preds = %62
  call void @ERR_put_error(i32 noundef 4, i32 noundef 0, i32 noundef 68, ptr noundef @.str, i32 noundef 568)
  br label %189

74:                                               ; preds = %62
  %75 = load ptr, ptr %6, align 8, !tbaa !6
  %76 = load ptr, ptr %12, align 8, !tbaa !28
  %77 = call ptr @rsa_blinding_get(ptr noundef %75, ptr noundef %13, ptr noundef %76)
  store ptr %77, ptr %14, align 8, !tbaa !33
  %78 = load ptr, ptr %14, align 8, !tbaa !33
  %79 = icmp eq ptr %78, null
  br i1 %79, label %80, label %81

80:                                               ; preds = %74
  call void @ERR_put_error(i32 noundef 4, i32 noundef 0, i32 noundef 68, ptr noundef @.str, i32 noundef 574)
  br label %189

81:                                               ; preds = %74
  %82 = load ptr, ptr %10, align 8, !tbaa !30
  %83 = load ptr, ptr %14, align 8, !tbaa !33
  %84 = load ptr, ptr %6, align 8, !tbaa !6
  %85 = getelementptr inbounds nuw %struct.rsa_st, ptr %84, i32 0, i32 2
  %86 = load ptr, ptr %85, align 8, !tbaa !31
  %87 = load ptr, ptr %6, align 8, !tbaa !6
  %88 = getelementptr inbounds nuw %struct.rsa_st, ptr %87, i32 0, i32 14
  %89 = load ptr, ptr %88, align 8, !tbaa !32
  %90 = load ptr, ptr %12, align 8, !tbaa !28
  %91 = call i32 @BN_BLINDING_convert(ptr noundef %82, ptr noundef %83, ptr noundef %86, ptr noundef %89, ptr noundef %90)
  %92 = icmp ne i32 %91, 0
  br i1 %92, label %94, label %93

93:                                               ; preds = %81
  br label %189

94:                                               ; preds = %81
  br label %95

95:                                               ; preds = %94, %50
  %96 = load ptr, ptr %6, align 8, !tbaa !6
  %97 = getelementptr inbounds nuw %struct.rsa_st, ptr %96, i32 0, i32 4
  %98 = load ptr, ptr %97, align 8, !tbaa !36
  %99 = icmp ne ptr %98, null
  br i1 %99, label %100, label %134

100:                                              ; preds = %95
  %101 = load ptr, ptr %6, align 8, !tbaa !6
  %102 = getelementptr inbounds nuw %struct.rsa_st, ptr %101, i32 0, i32 5
  %103 = load ptr, ptr %102, align 8, !tbaa !37
  %104 = icmp ne ptr %103, null
  br i1 %104, label %105, label %134

105:                                              ; preds = %100
  %106 = load ptr, ptr %6, align 8, !tbaa !6
  %107 = getelementptr inbounds nuw %struct.rsa_st, ptr %106, i32 0, i32 2
  %108 = load ptr, ptr %107, align 8, !tbaa !31
  %109 = icmp ne ptr %108, null
  br i1 %109, label %110, label %134

110:                                              ; preds = %105
  %111 = load ptr, ptr %6, align 8, !tbaa !6
  %112 = getelementptr inbounds nuw %struct.rsa_st, ptr %111, i32 0, i32 6
  %113 = load ptr, ptr %112, align 8, !tbaa !38
  %114 = icmp ne ptr %113, null
  br i1 %114, label %115, label %134

115:                                              ; preds = %110
  %116 = load ptr, ptr %6, align 8, !tbaa !6
  %117 = getelementptr inbounds nuw %struct.rsa_st, ptr %116, i32 0, i32 7
  %118 = load ptr, ptr %117, align 8, !tbaa !39
  %119 = icmp ne ptr %118, null
  br i1 %119, label %120, label %134

120:                                              ; preds = %115
  %121 = load ptr, ptr %6, align 8, !tbaa !6
  %122 = getelementptr inbounds nuw %struct.rsa_st, ptr %121, i32 0, i32 8
  %123 = load ptr, ptr %122, align 8, !tbaa !40
  %124 = icmp ne ptr %123, null
  br i1 %124, label %125, label %134

125:                                              ; preds = %120
  %126 = load ptr, ptr %11, align 8, !tbaa !30
  %127 = load ptr, ptr %10, align 8, !tbaa !30
  %128 = load ptr, ptr %6, align 8, !tbaa !6
  %129 = load ptr, ptr %12, align 8, !tbaa !28
  %130 = call i32 @mod_exp(ptr noundef %126, ptr noundef %127, ptr noundef %128, ptr noundef %129)
  %131 = icmp ne i32 %130, 0
  br i1 %131, label %133, label %132

132:                                              ; preds = %125
  br label %189

133:                                              ; preds = %125
  br label %167

134:                                              ; preds = %120, %115, %110, %105, %100, %95
  call void @llvm.lifetime.start.p0(i64 24, ptr %16) #7
  call void @llvm.lifetime.start.p0(i64 8, ptr %17) #7
  store ptr null, ptr %17, align 8, !tbaa !30
  call void @BN_init(ptr noundef %16)
  store ptr %16, ptr %17, align 8, !tbaa !30
  %135 = load ptr, ptr %17, align 8, !tbaa !30
  %136 = load ptr, ptr %6, align 8, !tbaa !6
  %137 = getelementptr inbounds nuw %struct.rsa_st, ptr %136, i32 0, i32 3
  %138 = load ptr, ptr %137, align 8, !tbaa !41
  call void @BN_with_flags(ptr noundef %135, ptr noundef %138, i32 noundef 4)
  %139 = load ptr, ptr %6, align 8, !tbaa !6
  %140 = getelementptr inbounds nuw %struct.rsa_st, ptr %139, i32 0, i32 14
  %141 = load ptr, ptr %6, align 8, !tbaa !6
  %142 = getelementptr inbounds nuw %struct.rsa_st, ptr %141, i32 0, i32 13
  %143 = load ptr, ptr %6, align 8, !tbaa !6
  %144 = getelementptr inbounds nuw %struct.rsa_st, ptr %143, i32 0, i32 1
  %145 = load ptr, ptr %144, align 8, !tbaa !11
  %146 = load ptr, ptr %12, align 8, !tbaa !28
  %147 = call i32 @BN_MONT_CTX_set_locked(ptr noundef %140, ptr noundef %142, ptr noundef %145, ptr noundef %146)
  %148 = icmp ne i32 %147, 0
  br i1 %148, label %149, label %162

149:                                              ; preds = %134
  %150 = load ptr, ptr %11, align 8, !tbaa !30
  %151 = load ptr, ptr %10, align 8, !tbaa !30
  %152 = load ptr, ptr %17, align 8, !tbaa !30
  %153 = load ptr, ptr %6, align 8, !tbaa !6
  %154 = getelementptr inbounds nuw %struct.rsa_st, ptr %153, i32 0, i32 1
  %155 = load ptr, ptr %154, align 8, !tbaa !11
  %156 = load ptr, ptr %12, align 8, !tbaa !28
  %157 = load ptr, ptr %6, align 8, !tbaa !6
  %158 = getelementptr inbounds nuw %struct.rsa_st, ptr %157, i32 0, i32 14
  %159 = load ptr, ptr %158, align 8, !tbaa !32
  %160 = call i32 @BN_mod_exp_mont_consttime(ptr noundef %150, ptr noundef %151, ptr noundef %152, ptr noundef %155, ptr noundef %156, ptr noundef %159)
  %161 = icmp ne i32 %160, 0
  br i1 %161, label %163, label %162

162:                                              ; preds = %149, %134
  store i32 2, ptr %18, align 4
  br label %164

163:                                              ; preds = %149
  store i32 0, ptr %18, align 4
  br label %164

164:                                              ; preds = %162, %163
  call void @llvm.lifetime.end.p0(i64 8, ptr %17) #7
  call void @llvm.lifetime.end.p0(i64 24, ptr %16) #7
  %165 = load i32, ptr %18, align 4
  switch i32 %165, label %204 [
    i32 0, label %166
    i32 2, label %189
  ]

166:                                              ; preds = %164
  br label %167

167:                                              ; preds = %166, %133
  %168 = load ptr, ptr %14, align 8, !tbaa !33
  %169 = icmp ne ptr %168, null
  br i1 %169, label %170, label %181

170:                                              ; preds = %167
  %171 = load ptr, ptr %11, align 8, !tbaa !30
  %172 = load ptr, ptr %14, align 8, !tbaa !33
  %173 = load ptr, ptr %6, align 8, !tbaa !6
  %174 = getelementptr inbounds nuw %struct.rsa_st, ptr %173, i32 0, i32 14
  %175 = load ptr, ptr %174, align 8, !tbaa !32
  %176 = load ptr, ptr %12, align 8, !tbaa !28
  %177 = call i32 @BN_BLINDING_invert(ptr noundef %171, ptr noundef %172, ptr noundef %175, ptr noundef %176)
  %178 = icmp ne i32 %177, 0
  br i1 %178, label %180, label %179

179:                                              ; preds = %170
  br label %189

180:                                              ; preds = %170
  br label %181

181:                                              ; preds = %180, %167
  %182 = load ptr, ptr %7, align 8, !tbaa !24
  %183 = load i64, ptr %9, align 8, !tbaa !25
  %184 = load ptr, ptr %11, align 8, !tbaa !30
  %185 = call i32 @BN_bn2bin_padded(ptr noundef %182, i64 noundef %183, ptr noundef %184)
  %186 = icmp ne i32 %185, 0
  br i1 %186, label %188, label %187

187:                                              ; preds = %181
  call void @ERR_put_error(i32 noundef 4, i32 noundef 0, i32 noundef 68, ptr noundef @.str, i32 noundef 608)
  br label %189

188:                                              ; preds = %181
  store i32 1, ptr %15, align 4, !tbaa !27
  br label %189

189:                                              ; preds = %188, %164, %187, %179, %132, %93, %80, %73, %61, %49, %41, %34, %22
  %190 = load ptr, ptr %12, align 8, !tbaa !28
  %191 = icmp ne ptr %190, null
  br i1 %191, label %192, label %195

192:                                              ; preds = %189
  %193 = load ptr, ptr %12, align 8, !tbaa !28
  call void @BN_CTX_end(ptr noundef %193)
  %194 = load ptr, ptr %12, align 8, !tbaa !28
  call void @BN_CTX_free(ptr noundef %194)
  br label %195

195:                                              ; preds = %192, %189
  %196 = load ptr, ptr %14, align 8, !tbaa !33
  %197 = icmp ne ptr %196, null
  br i1 %197, label %198, label %202

198:                                              ; preds = %195
  %199 = load ptr, ptr %6, align 8, !tbaa !6
  %200 = load ptr, ptr %14, align 8, !tbaa !33
  %201 = load i32, ptr %13, align 4, !tbaa !27
  call void @rsa_blinding_release(ptr noundef %199, ptr noundef %200, i32 noundef %201)
  br label %202

202:                                              ; preds = %198, %195
  %203 = load i32, ptr %15, align 4, !tbaa !27
  store i32 %203, ptr %5, align 4
  store i32 1, ptr %18, align 4
  br label %204

204:                                              ; preds = %202, %164
  call void @llvm.lifetime.end.p0(i64 4, ptr %15) #7
  call void @llvm.lifetime.end.p0(i64 8, ptr %14) #7
  call void @llvm.lifetime.end.p0(i64 4, ptr %13) #7
  call void @llvm.lifetime.end.p0(i64 8, ptr %12) #7
  call void @llvm.lifetime.end.p0(i64 8, ptr %11) #7
  call void @llvm.lifetime.end.p0(i64 8, ptr %10) #7
  %205 = load i32, ptr %5, align 4
  ret i32 %205
}