; Function Attrs: nounwind uwtable
define hidden range(i32 0, 2) i32 @rsa_default_private_transform(ptr noundef %0, ptr noundef %1, ptr noundef %2, i64 noundef %3) local_unnamed_addr #0 {
  %5 = alloca i32, align 4
  %6 = alloca %struct.bignum_st, align 8
  call void @llvm.lifetime.start.p0(i64 4, ptr nonnull %5) #8
  store i32 0, ptr %5, align 4, !tbaa !24
  %7 = tail call ptr @BN_CTX_new() #8
  %8 = icmp eq ptr %7, null
  br i1 %8, label %rsa_blinding_release.exit, label %9

9:                                                ; preds = %4
  tail call void @BN_CTX_start(ptr noundef nonnull %7) #8
  %10 = tail call ptr @BN_CTX_get(ptr noundef nonnull %7) #8
  %11 = tail call ptr @BN_CTX_get(ptr noundef nonnull %7) #8
  %12 = icmp eq ptr %10, null
  %13 = icmp eq ptr %11, null
  %or.cond = select i1 %12, i1 true, i1 %13
  br i1 %or.cond, label %14, label %15

14:                                               ; preds = %9
  tail call void @ERR_put_error(i32 noundef 4, i32 noundef 0, i32 noundef 65, ptr noundef nonnull @.str, i32 noundef 545) #8
  br label %87

15:                                               ; preds = %9
  %16 = tail call ptr @BN_bin2bn(ptr noundef %2, i64 noundef %3, ptr noundef nonnull %10) #8
  %17 = icmp eq ptr %16, null
  br i1 %17, label %87, label %18

18:                                               ; preds = %15
  %19 = getelementptr inbounds nuw i8, ptr %0, i64 8
  %20 = load ptr, ptr %19, align 8, !tbaa !6
  %21 = tail call i32 @BN_ucmp(ptr noundef nonnull %10, ptr noundef %20) #8
  %22 = icmp sgt i32 %21, -1
  br i1 %22, label %23, label %24

23:                                               ; preds = %18
  tail call void @ERR_put_error(i32 noundef 4, i32 noundef 0, i32 noundef 115, ptr noundef nonnull @.str, i32 noundef 555) #8
  br label %87

24:                                               ; preds = %18
  %25 = getelementptr inbounds nuw i8, ptr %0, i64 92
  %26 = load i32, ptr %25, align 4, !tbaa !25
  %27 = and i32 %26, 8
  %.not = icmp eq i32 %27, 0
  br i1 %.not, label %28, label %47

28:                                               ; preds = %24
  %29 = getelementptr inbounds nuw i8, ptr %0, i64 16
  %30 = load ptr, ptr %29, align 8, !tbaa !20
  %31 = icmp eq ptr %30, null
  br i1 %31, label %32, label %33

32:                                               ; preds = %28
  tail call void @ERR_put_error(i32 noundef 4, i32 noundef 0, i32 noundef 130, ptr noundef nonnull @.str, i32 noundef 563) #8
  br label %87

33:                                               ; preds = %28
  %34 = getelementptr inbounds nuw i8, ptr %0, i64 152
  %35 = getelementptr inbounds nuw i8, ptr %0, i64 96
  %36 = load ptr, ptr %19, align 8, !tbaa !6
  %37 = tail call i32 @BN_MONT_CTX_set_locked(ptr noundef nonnull %34, ptr noundef nonnull %35, ptr noundef %36, ptr noundef nonnull %7) #8
  %.not73 = icmp eq i32 %37, 0
  br i1 %.not73, label %38, label %39

38:                                               ; preds = %33
  tail call void @ERR_put_error(i32 noundef 4, i32 noundef 0, i32 noundef 68, ptr noundef nonnull @.str, i32 noundef 568) #8
  br label %87

39:                                               ; preds = %33
  %40 = call fastcc ptr @rsa_blinding_get(ptr noundef nonnull %0, ptr noundef %5)
  %41 = icmp eq ptr %40, null
  br i1 %41, label %42, label %43

42:                                               ; preds = %39
  tail call void @ERR_put_error(i32 noundef 4, i32 noundef 0, i32 noundef 68, ptr noundef nonnull @.str, i32 noundef 574) #8
  br label %87

43:                                               ; preds = %39
  %44 = load ptr, ptr %29, align 8, !tbaa !20
  %45 = load ptr, ptr %34, align 8, !tbaa !21
  %46 = tail call i32 @BN_BLINDING_convert(ptr noundef nonnull %10, ptr noundef nonnull %40, ptr noundef %44, ptr noundef %45, ptr noundef nonnull %7) #8
  %.not74 = icmp eq i32 %46, 0
  br i1 %.not74, label %87, label %47

47:                                               ; preds = %43, %24
  %.1 = phi ptr [ null, %24 ], [ %40, %43 ]
  %48 = getelementptr inbounds nuw i8, ptr %0, i64 32
  %49 = load ptr, ptr %48, align 8, !tbaa !26
  %.not75 = icmp eq ptr %49, null
  br i1 %.not75, label %67, label %50

50:                                               ; preds = %47
  %51 = getelementptr inbounds nuw i8, ptr %0, i64 40
  %52 = load ptr, ptr %51, align 8, !tbaa !27
  %.not76 = icmp eq ptr %52, null
  br i1 %.not76, label %67, label %53

53:                                               ; preds = %50
  %54 = getelementptr inbounds nuw i8, ptr %0, i64 16
  %55 = load ptr, ptr %54, align 8, !tbaa !20
  %.not77 = icmp eq ptr %55, null
  br i1 %.not77, label %67, label %56

56:                                               ; preds = %53
  %57 = getelementptr inbounds nuw i8, ptr %0, i64 48
  %58 = load ptr, ptr %57, align 8, !tbaa !28
  %.not78 = icmp eq ptr %58, null
  br i1 %.not78, label %67, label %59

59:                                               ; preds = %56
  %60 = getelementptr inbounds nuw i8, ptr %0, i64 56
  %61 = load ptr, ptr %60, align 8, !tbaa !29
  %.not79 = icmp eq ptr %61, null
  br i1 %.not79, label %67, label %62

62:                                               ; preds = %59
  %63 = getelementptr inbounds nuw i8, ptr %0, i64 64
  %64 = load ptr, ptr %63, align 8, !tbaa !30
  %.not80 = icmp eq ptr %64, null
  br i1 %.not80, label %67, label %65

65:                                               ; preds = %62
  %66 = tail call fastcc i32 @mod_exp(ptr noundef %11, ptr noundef %10, ptr noundef nonnull %0, ptr noundef %7)
  %.not83 = icmp eq i32 %66, 0
  br i1 %.not83, label %87, label %79

67:                                               ; preds = %62, %59, %56, %53, %50, %47
  call void @llvm.lifetime.start.p0(i64 24, ptr nonnull %6) #8
  call void @BN_init(ptr noundef nonnull %6) #8
  %68 = getelementptr inbounds nuw i8, ptr %0, i64 24
  %69 = load ptr, ptr %68, align 8, !tbaa !31
  call void @BN_with_flags(ptr noundef nonnull %6, ptr noundef %69, i32 noundef 4) #8
  %70 = getelementptr inbounds nuw i8, ptr %0, i64 152
  %71 = getelementptr inbounds nuw i8, ptr %0, i64 96
  %72 = load ptr, ptr %19, align 8, !tbaa !6
  %73 = call i32 @BN_MONT_CTX_set_locked(ptr noundef nonnull %70, ptr noundef nonnull %71, ptr noundef %72, ptr noundef nonnull %7) #8
  %.not81 = icmp eq i32 %73, 0
  br i1 %.not81, label %.thread, label %74

74:                                               ; preds = %67
  %75 = load ptr, ptr %19, align 8, !tbaa !6
  %76 = load ptr, ptr %70, align 8, !tbaa !21
  %77 = call i32 @BN_mod_exp_mont_consttime(ptr noundef nonnull %11, ptr noundef nonnull %10, ptr noundef nonnull %6, ptr noundef %75, ptr noundef nonnull %7, ptr noundef %76) #8
  %.not82 = icmp eq i32 %77, 0
  br i1 %.not82, label %.thread, label %78

.thread:                                          ; preds = %67, %74
  call void @llvm.lifetime.end.p0(i64 24, ptr nonnull %6) #8
  br label %87

78:                                               ; preds = %74
  call void @llvm.lifetime.end.p0(i64 24, ptr nonnull %6) #8
  br label %79

79:                                               ; preds = %78, %65
  %.not84 = icmp eq ptr %.1, null
  br i1 %.not84, label %84, label %80

80:                                               ; preds = %79
  %81 = getelementptr inbounds nuw i8, ptr %0, i64 152
  %82 = load ptr, ptr %81, align 8, !tbaa !21
  %83 = call i32 @BN_BLINDING_invert(ptr noundef nonnull %11, ptr noundef nonnull %.1, ptr noundef %82, ptr noundef nonnull %7) #8
  %.not85 = icmp eq i32 %83, 0
  br i1 %.not85, label %87, label %84

84:                                               ; preds = %80, %79
  %85 = call i32 @BN_bn2bin_padded(ptr noundef %1, i64 noundef %3, ptr noundef nonnull %11) #8
  %.not86 = icmp eq i32 %85, 0
  br i1 %.not86, label %86, label %87

86:                                               ; preds = %84
  call void @ERR_put_error(i32 noundef 4, i32 noundef 0, i32 noundef 68, ptr noundef nonnull @.str, i32 noundef 608) #8
  br label %87

87:                                               ; preds = %14, %23, %32, %38, %42, %86, %15, %43, %65, %80, %84, %.thread
  %.065.ph = phi ptr [ %.1, %.thread ], [ %.1, %84 ], [ null, %38 ], [ %40, %43 ], [ null, %42 ], [ null, %32 ], [ %.1, %65 ], [ %.1, %80 ], [ %.1, %86 ], [ null, %23 ], [ null, %15 ], [ null, %14 ]
  %.064.ph = phi i32 [ 0, %.thread ], [ 1, %84 ], [ 0, %38 ], [ 0, %43 ], [ 0, %42 ], [ 0, %32 ], [ 0, %65 ], [ 0, %80 ], [ 0, %86 ], [ 0, %23 ], [ 0, %15 ], [ 0, %14 ]
  call void @BN_CTX_end(ptr noundef nonnull %7) #8
  call void @BN_CTX_free(ptr noundef nonnull %7) #8
  %.not88 = icmp eq ptr %.065.ph, null
  br i1 %.not88, label %rsa_blinding_release.exit, label %88

88:                                               ; preds = %87
  %89 = load i32, ptr %5, align 4, !tbaa !24
  %90 = icmp eq i32 %89, 1024
  br i1 %90, label %91, label %92

91:                                               ; preds = %88
  call void @BN_BLINDING_free(ptr noundef nonnull %.065.ph) #8
  br label %rsa_blinding_release.exit

92:                                               ; preds = %88
  %93 = getelementptr inbounds nuw i8, ptr %0, i64 96
  call void @CRYPTO_MUTEX_lock_write(ptr noundef nonnull %93) #8
  %94 = getelementptr inbounds nuw i8, ptr %0, i64 192
  %95 = load ptr, ptr %94, align 8, !tbaa !32
  %96 = zext i32 %89 to i64
  %97 = getelementptr inbounds nuw i8, ptr %95, i64 %96
  store i8 0, ptr %97, align 1, !tbaa !33
  call void @CRYPTO_MUTEX_unlock(ptr noundef nonnull %93) #8
  br label %rsa_blinding_release.exit

rsa_blinding_release.exit:                        ; preds = %4, %92, %91, %87
  %.06499104 = phi i32 [ %.064.ph, %87 ], [ %.064.ph, %91 ], [ %.064.ph, %92 ], [ 0, %4 ]
  call void @llvm.lifetime.end.p0(i64 4, ptr nonnull %5) #8
  ret i32 %.06499104
}